; Function Attrs: mustprogress nofree norecurse nosync nounwind willreturn memory(argmem: readwrite) uwtable
define void @_ZN5arrow5DatumC2ESt10shared_ptrINS_5TableEE(ptr noundef nonnull writeonly align 8 captures(none) dereferenceable(24) initializes((0, 17)) %0, ptr noundef captures(none) %1) unnamed_addr #2 align 2 personality ptr @__gxx_personality_v0 {
  %3 = load ptr, ptr %1, align 8, !tbaa !52
  store ptr %3, ptr %0, align 8, !tbaa !52
  %4 = getelementptr inbounds nuw i8, ptr %0, i64 8
  store ptr null, ptr %4, align 8, !tbaa !38
  %5 = getelementptr inbounds nuw i8, ptr %1, i64 8
  %6 = load ptr, ptr %5, align 8, !tbaa !38
  store ptr null, ptr %5, align 8, !tbaa !38
  store ptr %6, ptr %4, align 8, !tbaa !38
  store ptr null, ptr %1, align 8, !tbaa !52
  %7 = getelementptr inbounds nuw i8, ptr %0, i64 16
  store i8 5, ptr %7, align 8, !tbaa !41
  ret void
}